#include <math.h>
#include <stdio.h>
#include <stdlib.h>
#include <string.h>

int main()
{
  int n,i,j;
  scanf("%d",&n);
  char str[1000][256];
  char a='A',b='T',c='C',d='G';
  for(i=0;i<n;i++){
    scanf("%s",str[i]);
  }
  for(i=0;i<n;i++){
	  for(j=0;j<strlen(str[i]);j++){
		  if(str[i][j]==a){
		    str[i][j]=b;
		  }
          else if(str[i][j]==b){
		   str[i][j]=a;
		  }	  
		  else if(str[i][j]==c){
			  str[i][j]=d;
		  }
		  else if(str[i][j]==d){
		      str[i][j]=c;
		  }
	  }
  }
   for(i=0;i<n;i++){
	   
		   printf("%s\n",str[i]);
   }
	   return 0;
}